target datalayout = "e-m:e-p270:32:32-p271:32:32-p272:64:64-i64:64-i128:128-f80:128-n8:16:32:64-S128"
target triple = "x86_64-pc-linux-gnu"

%struct.btLCP = type { i32, i32, i32, i32, i32, ptr, ptr, ptr, ptr, ptr, ptr, ptr, ptr, ptr, ptr, ptr, ptr, ptr, ptr, ptr }

; Function Attrs: mustprogress nounwind uwtable
define dso_local void @_ZN5btLCP6solve1EPfiii(ptr noundef nonnull align 8 dereferenceable(144) %0, ptr noundef %1, i32 noundef %2, i32 noundef %3, i32 noundef %4) #1 align 2 {
  %6 = alloca ptr, align 8
  %7 = alloca ptr, align 8
  %8 = alloca i32, align 4
  %9 = alloca i32, align 4
  %10 = alloca i32, align 4
  %11 = alloca ptr, align 8
  %12 = alloca ptr, align 8
  %13 = alloca ptr, align 8
  %14 = alloca i32, align 4
  %15 = alloca i32, align 4
  %16 = alloca i32, align 4
  %17 = alloca ptr, align 8
  %18 = alloca ptr, align 8
  %19 = alloca ptr, align 8
  %20 = alloca i32, align 4
  %21 = alloca i32, align 4
  %22 = alloca ptr, align 8
  %23 = alloca ptr, align 8
  %24 = alloca i32, align 4
  %25 = alloca i32, align 4
  %26 = alloca ptr, align 8
  %27 = alloca ptr, align 8
  %28 = alloca i32, align 4
  %29 = alloca i32, align 4
  %30 = alloca ptr, align 8
  %31 = alloca ptr, align 8
  %32 = alloca i32, align 4
  %33 = alloca i32, align 4
  store ptr %0, ptr %6, align 8, !tbaa !41
  store ptr %1, ptr %7, align 8, !tbaa !12
  store i32 %2, ptr %8, align 4, !tbaa !9
  store i32 %3, ptr %9, align 4, !tbaa !9
  store i32 %4, ptr %10, align 4, !tbaa !9
  %34 = load ptr, ptr %6, align 8
  %35 = getelementptr inbounds nuw %struct.btLCP, ptr %34, i32 0, i32 3
  %36 = load i32, ptr %35, align 4, !tbaa !53
  %37 = icmp sgt i32 %36, 0
  br i1 %37, label %38, label %234

38:                                               ; preds = %5
  call void @llvm.lifetime.start.p0(i64 8, ptr %11) #9
  %39 = getelementptr inbounds nuw %struct.btLCP, ptr %34, i32 0, i32 13
  %40 = load ptr, ptr %39, align 8, !tbaa !63
  store ptr %40, ptr %11, align 8, !tbaa !12
  call void @llvm.lifetime.start.p0(i64 8, ptr %12) #9
  %41 = getelementptr inbounds nuw %struct.btLCP, ptr %34, i32 0, i32 19
  %42 = load ptr, ptr %41, align 8, !tbaa !69
  store ptr %42, ptr %12, align 8, !tbaa !45
  call void @llvm.lifetime.start.p0(i64 8, ptr %13) #9
  %43 = getelementptr inbounds nuw %struct.btLCP, ptr %34, i32 0, i32 5
  %44 = load ptr, ptr %43, align 8, !tbaa !55
  %45 = load i32, ptr %8, align 4, !tbaa !9
  %46 = sext i32 %45 to i64
  %47 = getelementptr inbounds ptr, ptr %44, i64 %46
  %48 = load ptr, ptr %47, align 8, !tbaa !12
  store ptr %48, ptr %13, align 8, !tbaa !12
  call void @llvm.lifetime.start.p0(i64 4, ptr %14) #9
  %49 = getelementptr inbounds nuw %struct.btLCP, ptr %34, i32 0, i32 2
  %50 = load i32, ptr %49, align 8, !tbaa !52
  store i32 %50, ptr %14, align 4, !tbaa !9
  call void @llvm.lifetime.start.p0(i64 4, ptr %15) #9
  store i32 0, ptr %15, align 4, !tbaa !9
  br label %51

51:                                               ; preds = %65, %38
  %52 = load i32, ptr %15, align 4, !tbaa !9
  %53 = load i32, ptr %14, align 4, !tbaa !9
  %54 = icmp slt i32 %52, %53
  br i1 %54, label %55, label %68

55:                                               ; preds = %51
  %56 = load ptr, ptr %13, align 8, !tbaa !12
  %57 = load i32, ptr %15, align 4, !tbaa !9
  %58 = sext i32 %57 to i64
  %59 = getelementptr inbounds float, ptr %56, i64 %58
  %60 = load float, ptr %59, align 4, !tbaa !14
  %61 = load ptr, ptr %11, align 8, !tbaa !12
  %62 = load i32, ptr %15, align 4, !tbaa !9
  %63 = sext i32 %62 to i64
  %64 = getelementptr inbounds float, ptr %61, i64 %63
  store float %60, ptr %64, align 4, !tbaa !14
  br label %65

65:                                               ; preds = %55
  %66 = load i32, ptr %15, align 4, !tbaa !9
  %67 = add nsw i32 %66, 1
  store i32 %67, ptr %15, align 4, !tbaa !9
  br label %51, !llvm.loop !114

68:                                               ; preds = %51
  call void @llvm.lifetime.start.p0(i64 4, ptr %16) #9
  %69 = getelementptr inbounds nuw %struct.btLCP, ptr %34, i32 0, i32 3
  %70 = load i32, ptr %69, align 4, !tbaa !53
  store i32 %70, ptr %16, align 4, !tbaa !9
  br label %71

71:                                               ; preds = %89, %68
  %72 = load i32, ptr %15, align 4, !tbaa !9
  %73 = load i32, ptr %16, align 4, !tbaa !9
  %74 = icmp slt i32 %72, %73
  br i1 %74, label %75, label %92

75:                                               ; preds = %71
  %76 = load ptr, ptr %13, align 8, !tbaa !12
  %77 = load ptr, ptr %12, align 8, !tbaa !45
  %78 = load i32, ptr %15, align 4, !tbaa !9
  %79 = sext i32 %78 to i64
  %80 = getelementptr inbounds i32, ptr %77, i64 %79
  %81 = load i32, ptr %80, align 4, !tbaa !9
  %82 = sext i32 %81 to i64
  %83 = getelementptr inbounds float, ptr %76, i64 %82
  %84 = load float, ptr %83, align 4, !tbaa !14
  %85 = load ptr, ptr %11, align 8, !tbaa !12
  %86 = load i32, ptr %15, align 4, !tbaa !9
  %87 = sext i32 %86 to i64
  %88 = getelementptr inbounds float, ptr %85, i64 %87
  store float %84, ptr %88, align 4, !tbaa !14
  br label %89

89:                                               ; preds = %75
  %90 = load i32, ptr %15, align 4, !tbaa !9
  %91 = add nsw i32 %90, 1
  store i32 %91, ptr %15, align 4, !tbaa !9
  br label %71, !llvm.loop !115

92:                                               ; preds = %71
  call void @llvm.lifetime.end.p0(i64 4, ptr %16) #9
  call void @llvm.lifetime.end.p0(i64 4, ptr %15) #9
  call void @llvm.lifetime.end.p0(i64 4, ptr %14) #9
  call void @llvm.lifetime.end.p0(i64 8, ptr %13) #9
  call void @llvm.lifetime.end.p0(i64 8, ptr %12) #9
  call void @llvm.lifetime.end.p0(i64 8, ptr %11) #9
  %93 = getelementptr inbounds nuw %struct.btLCP, ptr %34, i32 0, i32 11
  %94 = load ptr, ptr %93, align 8, !tbaa !61
  %95 = getelementptr inbounds nuw %struct.btLCP, ptr %34, i32 0, i32 13
  %96 = load ptr, ptr %95, align 8, !tbaa !63
  %97 = getelementptr inbounds nuw %struct.btLCP, ptr %34, i32 0, i32 3
  %98 = load i32, ptr %97, align 4, !tbaa !53
  %99 = getelementptr inbounds nuw %struct.btLCP, ptr %34, i32 0, i32 1
  %100 = load i32, ptr %99, align 4, !tbaa !51
  call void @_Z9btSolveL1PKfPfii(ptr noundef %94, ptr noundef %96, i32 noundef %98, i32 noundef %100)
  call void @llvm.lifetime.start.p0(i64 8, ptr %17) #9
  %101 = getelementptr inbounds nuw %struct.btLCP, ptr %34, i32 0, i32 14
  %102 = load ptr, ptr %101, align 8, !tbaa !64
  store ptr %102, ptr %17, align 8, !tbaa !12
  call void @llvm.lifetime.start.p0(i64 8, ptr %18) #9
  %103 = getelementptr inbounds nuw %struct.btLCP, ptr %34, i32 0, i32 13
  %104 = load ptr, ptr %103, align 8, !tbaa !63
  store ptr %104, ptr %18, align 8, !tbaa !12
  call void @llvm.lifetime.start.p0(i64 8, ptr %19) #9
  %105 = getelementptr inbounds nuw %struct.btLCP, ptr %34, i32 0, i32 12
  %106 = load ptr, ptr %105, align 8, !tbaa !62
  store ptr %106, ptr %19, align 8, !tbaa !12
  call void @llvm.lifetime.start.p0(i64 4, ptr %20) #9
  %107 = getelementptr inbounds nuw %struct.btLCP, ptr %34, i32 0, i32 3
  %108 = load i32, ptr %107, align 4, !tbaa !53
  store i32 %108, ptr %20, align 4, !tbaa !9
  call void @llvm.lifetime.start.p0(i64 4, ptr %21) #9
  store i32 0, ptr %21, align 4, !tbaa !9
  br label %109

109:                                              ; preds = %130, %92
  %110 = load i32, ptr %21, align 4, !tbaa !9
  %111 = load i32, ptr %20, align 4, !tbaa !9
  %112 = icmp slt i32 %110, %111
  br i1 %112, label %114, label %113

113:                                              ; preds = %109
  call void @llvm.lifetime.end.p0(i64 4, ptr %21) #9
  br label %133

114:                                              ; preds = %109
  %115 = load ptr, ptr %18, align 8, !tbaa !12
  %116 = load i32, ptr %21, align 4, !tbaa !9
  %117 = sext i32 %116 to i64
  %118 = getelementptr inbounds float, ptr %115, i64 %117
  %119 = load float, ptr %118, align 4, !tbaa !14
  %120 = load ptr, ptr %19, align 8, !tbaa !12
  %121 = load i32, ptr %21, align 4, !tbaa !9
  %122 = sext i32 %121 to i64
  %123 = getelementptr inbounds float, ptr %120, i64 %122
  %124 = load float, ptr %123, align 4, !tbaa !14
  %125 = fmul float %119, %124
  %126 = load ptr, ptr %17, align 8, !tbaa !12
  %127 = load i32, ptr %21, align 4, !tbaa !9
  %128 = sext i32 %127 to i64
  %129 = getelementptr inbounds float, ptr %126, i64 %128
  store float %125, ptr %129, align 4, !tbaa !14
  br label %130

130:                                              ; preds = %114
  %131 = load i32, ptr %21, align 4, !tbaa !9
  %132 = add nsw i32 %131, 1
  store i32 %132, ptr %21, align 4, !tbaa !9
  br label %109, !llvm.loop !116

133:                                              ; preds = %113
  call void @llvm.lifetime.end.p0(i64 4, ptr %20) #9
  call void @llvm.lifetime.end.p0(i64 8, ptr %19) #9
  call void @llvm.lifetime.end.p0(i64 8, ptr %18) #9
  call void @llvm.lifetime.end.p0(i64 8, ptr %17) #9
  %134 = load i32, ptr %10, align 4, !tbaa !9
  %135 = icmp ne i32 %134, 0
  br i1 %135, label %233, label %136

136:                                              ; preds = %133
  call void @llvm.lifetime.start.p0(i64 8, ptr %22) #9
  %137 = getelementptr inbounds nuw %struct.btLCP, ptr %34, i32 0, i32 15
  %138 = load ptr, ptr %137, align 8, !tbaa !65
  store ptr %138, ptr %22, align 8, !tbaa !12
  call void @llvm.lifetime.start.p0(i64 8, ptr %23) #9
  %139 = getelementptr inbounds nuw %struct.btLCP, ptr %34, i32 0, i32 14
  %140 = load ptr, ptr %139, align 8, !tbaa !64
  store ptr %140, ptr %23, align 8, !tbaa !12
  call void @llvm.lifetime.start.p0(i64 4, ptr %24) #9
  %141 = getelementptr inbounds nuw %struct.btLCP, ptr %34, i32 0, i32 3
  %142 = load i32, ptr %141, align 4, !tbaa !53
  store i32 %142, ptr %24, align 4, !tbaa !9
  call void @llvm.lifetime.start.p0(i64 4, ptr %25) #9
  store i32 0, ptr %25, align 4, !tbaa !9
  br label %143

143:                                              ; preds = %158, %136
  %144 = load i32, ptr %25, align 4, !tbaa !9
  %145 = load i32, ptr %24, align 4, !tbaa !9
  %146 = icmp slt i32 %144, %145
  br i1 %146, label %148, label %147

147:                                              ; preds = %143
  call void @llvm.lifetime.end.p0(i64 4, ptr %25) #9
  br label %161

148:                                              ; preds = %143
  %149 = load ptr, ptr %23, align 8, !tbaa !12
  %150 = load i32, ptr %25, align 4, !tbaa !9
  %151 = sext i32 %150 to i64
  %152 = getelementptr inbounds float, ptr %149, i64 %151
  %153 = load float, ptr %152, align 4, !tbaa !14
  %154 = load ptr, ptr %22, align 8, !tbaa !12
  %155 = load i32, ptr %25, align 4, !tbaa !9
  %156 = sext i32 %155 to i64
  %157 = getelementptr inbounds float, ptr %154, i64 %156
  store float %153, ptr %157, align 4, !tbaa !14
  br label %158

158:                                              ; preds = %148
  %159 = load i32, ptr %25, align 4, !tbaa !9
  %160 = add nsw i32 %159, 1
  store i32 %160, ptr %25, align 4, !tbaa !9
  br label %143, !llvm.loop !117

161:                                              ; preds = %147
  call void @llvm.lifetime.end.p0(i64 4, ptr %24) #9
  %162 = getelementptr inbounds nuw %struct.btLCP, ptr %34, i32 0, i32 11
  %163 = load ptr, ptr %162, align 8, !tbaa !61
  %164 = load ptr, ptr %22, align 8, !tbaa !12
  %165 = getelementptr inbounds nuw %struct.btLCP, ptr %34, i32 0, i32 3
  %166 = load i32, ptr %165, align 4, !tbaa !53
  %167 = getelementptr inbounds nuw %struct.btLCP, ptr %34, i32 0, i32 1
  %168 = load i32, ptr %167, align 4, !tbaa !51
  call void @_Z10btSolveL1TPKfPfii(ptr noundef %163, ptr noundef %164, i32 noundef %166, i32 noundef %168)
  %169 = load i32, ptr %9, align 4, !tbaa !9
  %170 = icmp sgt i32 %169, 0
  br i1 %170, label %171, label %202

171:                                              ; preds = %161
  call void @llvm.lifetime.start.p0(i64 8, ptr %26) #9
  %172 = getelementptr inbounds nuw %struct.btLCP, ptr %34, i32 0, i32 19
  %173 = load ptr, ptr %172, align 8, !tbaa !69
  store ptr %173, ptr %26, align 8, !tbaa !45
  call void @llvm.lifetime.start.p0(i64 8, ptr %27) #9
  %174 = getelementptr inbounds nuw %struct.btLCP, ptr %34, i32 0, i32 15
  %175 = load ptr, ptr %174, align 8, !tbaa !65
  store ptr %175, ptr %27, align 8, !tbaa !12
  call void @llvm.lifetime.start.p0(i64 4, ptr %28) #9
  %176 = getelementptr inbounds nuw %struct.btLCP, ptr %34, i32 0, i32 3
  %177 = load i32, ptr %176, align 4, !tbaa !53
  store i32 %177, ptr %28, align 4, !tbaa !9
  call void @llvm.lifetime.start.p0(i64 4, ptr %29) #9
  store i32 0, ptr %29, align 4, !tbaa !9
  br label %178

178:                                              ; preds = %198, %171
  %179 = load i32, ptr %29, align 4, !tbaa !9
  %180 = load i32, ptr %28, align 4, !tbaa !9
  %181 = icmp slt i32 %179, %180
  br i1 %181, label %183, label %182

182:                                              ; preds = %178
  call void @llvm.lifetime.end.p0(i64 4, ptr %29) #9
  br label %201

183:                                              ; preds = %178
  %184 = load ptr, ptr %27, align 8, !tbaa !12
  %185 = load i32, ptr %29, align 4, !tbaa !9
  %186 = sext i32 %185 to i64
  %187 = getelementptr inbounds float, ptr %184, i64 %186
  %188 = load float, ptr %187, align 4, !tbaa !14
  %189 = fneg float %188
  %190 = load ptr, ptr %7, align 8, !tbaa !12
  %191 = load ptr, ptr %26, align 8, !tbaa !45
  %192 = load i32, ptr %29, align 4, !tbaa !9
  %193 = sext i32 %192 to i64
  %194 = getelementptr inbounds i32, ptr %191, i64 %193
  %195 = load i32, ptr %194, align 4, !tbaa !9
  %196 = sext i32 %195 to i64
  %197 = getelementptr inbounds float, ptr %190, i64 %196
  store float %189, ptr %197, align 4, !tbaa !14
  br label %198

198:                                              ; preds = %183
  %199 = load i32, ptr %29, align 4, !tbaa !9
  %200 = add nsw i32 %199, 1
  store i32 %200, ptr %29, align 4, !tbaa !9
  br label %178, !llvm.loop !118

201:                                              ; preds = %182
  call void @llvm.lifetime.end.p0(i64 4, ptr %28) #9
  call void @llvm.lifetime.end.p0(i64 8, ptr %27) #9
  call void @llvm.lifetime.end.p0(i64 8, ptr %26) #9
  br label %232

202:                                              ; preds = %161
  call void @llvm.lifetime.start.p0(i64 8, ptr %30) #9
  %203 = getelementptr inbounds nuw %struct.btLCP, ptr %34, i32 0, i32 19
  %204 = load ptr, ptr %203, align 8, !tbaa !69
  store ptr %204, ptr %30, align 8, !tbaa !45
  call void @llvm.lifetime.start.p0(i64 8, ptr %31) #9
  %205 = getelementptr inbounds nuw %struct.btLCP, ptr %34, i32 0, i32 15
  %206 = load ptr, ptr %205, align 8, !tbaa !65
  store ptr %206, ptr %31, align 8, !tbaa !12
  call void @llvm.lifetime.start.p0(i64 4, ptr %32) #9
  %207 = getelementptr inbounds nuw %struct.btLCP, ptr %34, i32 0, i32 3
  %208 = load i32, ptr %207, align 4, !tbaa !53
  store i32 %208, ptr %32, align 4, !tbaa !9
  call void @llvm.lifetime.start.p0(i64 4, ptr %33) #9
  store i32 0, ptr %33, align 4, !tbaa !9
  br label %209

209:                                              ; preds = %228, %202
  %210 = load i32, ptr %33, align 4, !tbaa !9
  %211 = load i32, ptr %32, align 4, !tbaa !9
  %212 = icmp slt i32 %210, %211
  br i1 %212, label %214, label %213

213:                                              ; preds = %209
  call void @llvm.lifetime.end.p0(i64 4, ptr %33) #9
  br label %231

214:                                              ; preds = %209
  %215 = load ptr, ptr %31, align 8, !tbaa !12
  %216 = load i32, ptr %33, align 4, !tbaa !9
  %217 = sext i32 %216 to i64
  %218 = getelementptr inbounds float, ptr %215, i64 %217
  %219 = load float, ptr %218, align 4, !tbaa !14
  %220 = load ptr, ptr %7, align 8, !tbaa !12
  %221 = load ptr, ptr %30, align 8, !tbaa !45
  %222 = load i32, ptr %33, align 4, !tbaa !9
  %223 = sext i32 %222 to i64
  %224 = getelementptr inbounds i32, ptr %221, i64 %223
  %225 = load i32, ptr %224, align 4, !tbaa !9
  %226 = sext i32 %225 to i64
  %227 = getelementptr inbounds float, ptr %220, i64 %226
  store float %219, ptr %227, align 4, !tbaa !14
  br label %228

228:                                              ; preds = %214
  %229 = load i32, ptr %33, align 4, !tbaa !9
  %230 = add nsw i32 %229, 1
  store i32 %230, ptr %33, align 4, !tbaa !9
  br label %209, !llvm.loop !119

231:                                              ; preds = %213
  call void @llvm.lifetime.end.p0(i64 4, ptr %32) #9
  call void @llvm.lifetime.end.p0(i64 8, ptr %31) #9
  call void @llvm.lifetime.end.p0(i64 8, ptr %30) #9
  br label %232

232:                                              ; preds = %231, %201
  call void @llvm.lifetime.end.p0(i64 8, ptr %23) #9
  call void @llvm.lifetime.end.p0(i64 8, ptr %22) #9
  br label %233

233:                                              ; preds = %232, %133
  br label %234

234:                                              ; preds = %233, %5
  ret void
}