; Function Attrs: mustprogress nofree norecurse nosync nounwind memory(readwrite, inaccessiblemem: none) uwtable
define dso_local void @_ZN5btLCP6solve1EPfiii(ptr noundef nonnull readonly align 8 captures(none) dereferenceable(144) %0, ptr noundef writeonly captures(none) %1, i32 noundef %2, i32 noundef %3, i32 noundef %4) local_unnamed_addr #3 align 2 {
  %6 = getelementptr inbounds nuw i8, ptr %0, i64 12
  %7 = load i32, ptr %6, align 4, !tbaa !41
  %8 = icmp sgt i32 %7, 0
  br i1 %8, label %9, label %.loopexit

9:                                                ; preds = %5
  %10 = getelementptr inbounds nuw i8, ptr %0, i64 88
  %11 = load ptr, ptr %10, align 8, !tbaa !51
  %12 = getelementptr inbounds nuw i8, ptr %0, i64 136
  %13 = load ptr, ptr %12, align 8, !tbaa !57
  %14 = getelementptr inbounds nuw i8, ptr %0, i64 24
  %15 = load ptr, ptr %14, align 8, !tbaa !43
  %16 = sext i32 %2 to i64
  %17 = getelementptr inbounds ptr, ptr %15, i64 %16
  %18 = load ptr, ptr %17, align 8, !tbaa !58
  %19 = getelementptr inbounds nuw i8, ptr %0, i64 8
  %20 = load i32, ptr %19, align 8, !tbaa !40
  %21 = icmp sgt i32 %20, 0
  br i1 %21, label %.lr.ph.preheader, label %.preheader

.lr.ph.preheader:                                 ; preds = %9
  %wide.trip.count = zext nneg i32 %20 to i64
  br label %.lr.ph

.preheader:                                       ; preds = %.lr.ph, %9
  %.051.lcssa = phi i32 [ 0, %9 ], [ %20, %.lr.ph ]
  %22 = icmp slt i32 %.051.lcssa, %7
  br i1 %22, label %.lr.ph58.preheader, label %._crit_edge

.lr.ph58.preheader:                               ; preds = %.preheader
  %23 = zext nneg i32 %.051.lcssa to i64
  %wide.trip.count78 = zext nneg i32 %7 to i64
  br label %.lr.ph58

.lr.ph:                                           ; preds = %.lr.ph.preheader, %.lr.ph
  %indvars.iv = phi i64 [ 0, %.lr.ph.preheader ], [ %indvars.iv.next, %.lr.ph ]
  %24 = getelementptr inbounds nuw float, ptr %18, i64 %indvars.iv
  %25 = load float, ptr %24, align 4, !tbaa !4
  %26 = getelementptr inbounds nuw float, ptr %11, i64 %indvars.iv
  store float %25, ptr %26, align 4, !tbaa !4
  %indvars.iv.next = add nuw nsw i64 %indvars.iv, 1
  %exitcond.not = icmp eq i64 %indvars.iv.next, %wide.trip.count
  br i1 %exitcond.not, label %.preheader, label %.lr.ph, !llvm.loop !102

.lr.ph58:                                         ; preds = %.lr.ph58.preheader, %.lr.ph58
  %indvars.iv75 = phi i64 [ %23, %.lr.ph58.preheader ], [ %indvars.iv.next76, %.lr.ph58 ]
  %27 = getelementptr inbounds nuw i32, ptr %13, i64 %indvars.iv75
  %28 = load i32, ptr %27, align 4, !tbaa !60
  %29 = sext i32 %28 to i64
  %30 = getelementptr inbounds float, ptr %18, i64 %29
  %31 = load float, ptr %30, align 4, !tbaa !4
  %32 = getelementptr inbounds nuw float, ptr %11, i64 %indvars.iv75
  store float %31, ptr %32, align 4, !tbaa !4
  %indvars.iv.next76 = add nuw nsw i64 %indvars.iv75, 1
  %exitcond79.not = icmp eq i64 %indvars.iv.next76, %wide.trip.count78
  br i1 %exitcond79.not, label %._crit_edge, label %.lr.ph58, !llvm.loop !103

._crit_edge:                                      ; preds = %.lr.ph58, %.preheader
  %33 = getelementptr inbounds nuw i8, ptr %0, i64 72
  %34 = load ptr, ptr %33, align 8, !tbaa !49
  %35 = getelementptr inbounds nuw i8, ptr %0, i64 4
  %36 = load i32, ptr %35, align 4, !tbaa !39
  tail call void @_Z9btSolveL1PKfPfii(ptr noundef %34, ptr noundef %11, i32 noundef %7, i32 noundef %36)
  %37 = getelementptr inbounds nuw i8, ptr %0, i64 96
  %38 = load ptr, ptr %37, align 8, !tbaa !52
  %39 = load ptr, ptr %10, align 8, !tbaa !51
  %40 = getelementptr inbounds nuw i8, ptr %0, i64 80
  %41 = load ptr, ptr %40, align 8, !tbaa !50
  %42 = load i32, ptr %6, align 4, !tbaa !41
  %43 = icmp sgt i32 %42, 0
  br i1 %43, label %.lr.ph61.preheader, label %._crit_edge62.thread

.lr.ph61.preheader:                               ; preds = %._crit_edge
  %wide.trip.count83 = zext nneg i32 %42 to i64
  br label %.lr.ph61

._crit_edge62:                                    ; preds = %.lr.ph61
  %.not = icmp eq i32 %4, 0
  br i1 %.not, label %.lr.ph65.preheader, label %.loopexit

._crit_edge62.thread:                             ; preds = %._crit_edge
  %.not100 = icmp eq i32 %4, 0
  br i1 %.not100, label %.thread, label %.loopexit

.thread:                                          ; preds = %._crit_edge62.thread
  %44 = getelementptr inbounds nuw i8, ptr %0, i64 104
  %45 = load ptr, ptr %44, align 8, !tbaa !53
  br label %._crit_edge66

.lr.ph61:                                         ; preds = %.lr.ph61.preheader, %.lr.ph61
  %indvars.iv80 = phi i64 [ 0, %.lr.ph61.preheader ], [ %indvars.iv.next81, %.lr.ph61 ]
  %46 = getelementptr inbounds nuw float, ptr %39, i64 %indvars.iv80
  %47 = load float, ptr %46, align 4, !tbaa !4
  %48 = getelementptr inbounds nuw float, ptr %41, i64 %indvars.iv80
  %49 = load float, ptr %48, align 4, !tbaa !4
  %50 = fmul float %47, %49
  %51 = getelementptr inbounds nuw float, ptr %38, i64 %indvars.iv80
  store float %50, ptr %51, align 4, !tbaa !4
  %indvars.iv.next81 = add nuw nsw i64 %indvars.iv80, 1
  %exitcond84.not = icmp eq i64 %indvars.iv.next81, %wide.trip.count83
  br i1 %exitcond84.not, label %._crit_edge62, label %.lr.ph61, !llvm.loop !104

.lr.ph65.preheader:                               ; preds = %._crit_edge62
  %52 = getelementptr inbounds nuw i8, ptr %0, i64 104
  %53 = load ptr, ptr %52, align 8, !tbaa !53
  %wide.trip.count88 = zext nneg i32 %42 to i64
  br label %.lr.ph65

._crit_edge66:                                    ; preds = %.lr.ph65, %.thread
  %54 = phi ptr [ %45, %.thread ], [ %53, %.lr.ph65 ]
  %55 = phi ptr [ %44, %.thread ], [ %52, %.lr.ph65 ]
  %56 = load ptr, ptr %33, align 8, !tbaa !49
  %57 = load i32, ptr %35, align 4, !tbaa !39
  tail call void @_Z10btSolveL1TPKfPfii(ptr noundef %56, ptr noundef %54, i32 noundef %42, i32 noundef %57)
  %58 = icmp sgt i32 %3, 0
  %59 = load ptr, ptr %12, align 8, !tbaa !57
  %60 = load ptr, ptr %55, align 8, !tbaa !53
  %61 = load i32, ptr %6, align 4, !tbaa !41
  %62 = icmp sgt i32 %61, 0
  br i1 %58, label %66, label %74

.lr.ph65:                                         ; preds = %.lr.ph65.preheader, %.lr.ph65
  %indvars.iv85 = phi i64 [ 0, %.lr.ph65.preheader ], [ %indvars.iv.next86, %.lr.ph65 ]
  %63 = getelementptr inbounds nuw float, ptr %38, i64 %indvars.iv85
  %64 = load float, ptr %63, align 4, !tbaa !4
  %65 = getelementptr inbounds nuw float, ptr %53, i64 %indvars.iv85
  store float %64, ptr %65, align 4, !tbaa !4
  %indvars.iv.next86 = add nuw nsw i64 %indvars.iv85, 1
  %exitcond89.not = icmp eq i64 %indvars.iv.next86, %wide.trip.count88
  br i1 %exitcond89.not, label %._crit_edge66, label %.lr.ph65, !llvm.loop !105

66:                                               ; preds = %._crit_edge66
  br i1 %62, label %.lr.ph72.preheader, label %.loopexit

.lr.ph72.preheader:                               ; preds = %66
  %wide.trip.count98 = zext nneg i32 %61 to i64
  br label %.lr.ph72

.lr.ph72:                                         ; preds = %.lr.ph72.preheader, %.lr.ph72
  %indvars.iv95 = phi i64 [ 0, %.lr.ph72.preheader ], [ %indvars.iv.next96, %.lr.ph72 ]
  %67 = getelementptr inbounds nuw float, ptr %60, i64 %indvars.iv95
  %68 = load float, ptr %67, align 4, !tbaa !4
  %69 = fneg float %68
  %70 = getelementptr inbounds nuw i32, ptr %59, i64 %indvars.iv95
  %71 = load i32, ptr %70, align 4, !tbaa !60
  %72 = sext i32 %71 to i64
  %73 = getelementptr inbounds float, ptr %1, i64 %72
  store float %69, ptr %73, align 4, !tbaa !4
  %indvars.iv.next96 = add nuw nsw i64 %indvars.iv95, 1
  %exitcond99.not = icmp eq i64 %indvars.iv.next96, %wide.trip.count98
  br i1 %exitcond99.not, label %.loopexit, label %.lr.ph72, !llvm.loop !106

74:                                               ; preds = %._crit_edge66
  br i1 %62, label %.lr.ph69.preheader, label %.loopexit

.lr.ph69.preheader:                               ; preds = %74
  %wide.trip.count93 = zext nneg i32 %61 to i64
  br label %.lr.ph69

.lr.ph69:                                         ; preds = %.lr.ph69.preheader, %.lr.ph69
  %indvars.iv90 = phi i64 [ 0, %.lr.ph69.preheader ], [ %indvars.iv.next91, %.lr.ph69 ]
  %75 = getelementptr inbounds nuw float, ptr %60, i64 %indvars.iv90
  %76 = load float, ptr %75, align 4, !tbaa !4
  %77 = getelementptr inbounds nuw i32, ptr %59, i64 %indvars.iv90
  %78 = load i32, ptr %77, align 4, !tbaa !60
  %79 = sext i32 %78 to i64
  %80 = getelementptr inbounds float, ptr %1, i64 %79
  store float %76, ptr %80, align 4, !tbaa !4
  %indvars.iv.next91 = add nuw nsw i64 %indvars.iv90, 1
  %exitcond94.not = icmp eq i64 %indvars.iv.next91, %wide.trip.count93
  br i1 %exitcond94.not, label %.loopexit, label %.lr.ph69, !llvm.loop !107

.loopexit:                                        ; preds = %.lr.ph69, %.lr.ph72, %._crit_edge62.thread, %74, %66, %._crit_edge62, %5
  ret void
}